; ModuleID = '27/1882.c'
source_filename = "27/1882.c"
target datalayout = "e-m:e-p270:32:32-p271:32:32-p272:64:64-i64:64-f80:128-n8:16:32:64-S128"
target triple = "x86_64-pc-linux-gnu"

@.str = private unnamed_addr constant [3 x i8] c"%d\00", align 1
@.str.1 = private unnamed_addr constant [10 x i8] c"%lf%lf%lf\00", align 1
@.str.2 = private unnamed_addr constant [10 x i8] c"x1=%.5lf;\00", align 1
@.str.3 = private unnamed_addr constant [10 x i8] c"x2=%.5lf\0A\00", align 1
@.str.4 = private unnamed_addr constant [13 x i8] c"x1=x2=%.5lf\0A\00", align 1
@.str.5 = private unnamed_addr constant [17 x i8] c"x1=%.5lf+%.5lfi;\00", align 1
@.str.6 = private unnamed_addr constant [17 x i8] c"x2=%.5lf-%.5lfi\0A\00", align 1

; Function Attrs: noinline nounwind uwtable
define dso_local void @main() #0 {
  %1 = alloca i32, align 4
  %2 = alloca i32, align 4
  %3 = alloca double, align 8
  %4 = alloca double, align 8
  %5 = alloca double, align 8
  %6 = call i32 (i8*, ...) @__isoc99_scanf(i8* getelementptr inbounds ([3 x i8], [3 x i8]* @.str, i64 0, i64 0), i32* %1)
  store i32 0, i32* %2, align 4
  br label %7

7:                                                ; preds = %16, %0
  %8 = load i32, i32* %2, align 4
  %9 = load i32, i32* %1, align 4
  %10 = icmp slt i32 %8, %9
  br i1 %10, label %11, label %19

11:                                               ; preds = %7
  %12 = call i32 (i8*, ...) @__isoc99_scanf(i8* getelementptr inbounds ([10 x i8], [10 x i8]* @.str.1, i64 0, i64 0), double* %3, double* %4, double* %5)
  %13 = load double, double* %3, align 8
  %14 = load double, double* %4, align 8
  %15 = load double, double* %5, align 8
  call void @d(double %13, double %14, double %15)
  br label %16

16:                                               ; preds = %11
  %17 = load i32, i32* %2, align 4
  %18 = add nsw i32 %17, 1
  store i32 %18, i32* %2, align 4
  br label %7

19:                                               ; preds = %7
  ret void
}

declare dso_local i32 @__isoc99_scanf(i8*, ...) #1

; Function Attrs: noinline nounwind uwtable
define dso_local void @d(double %0, double %1, double %2) #0 {
  %4 = alloca double, align 8
  %5 = alloca double, align 8
  %6 = alloca double, align 8
  %7 = alloca double, align 8
  %8 = alloca double, align 8
  store double %0, double* %4, align 8
  store double %1, double* %5, align 8
  store double %2, double* %6, align 8
  %9 = load double, double* %5, align 8
  %10 = load double, double* %5, align 8
  %11 = fmul double %9, %10
  %12 = load double, double* %4, align 8
  %13 = fmul double 4.000000e+00, %12
  %14 = load double, double* %6, align 8
  %15 = fmul double %13, %14
  %16 = fsub double %11, %15
  %17 = fcmp ogt double %16, 0.000000e+00
  br i1 %17, label %18, label %53

18:                                               ; preds = %3
  %19 = load double, double* %5, align 8
  %20 = fneg double %19
  %21 = load double, double* %5, align 8
  %22 = load double, double* %5, align 8
  %23 = fmul double %21, %22
  %24 = load double, double* %4, align 8
  %25 = fmul double 4.000000e+00, %24
  %26 = load double, double* %6, align 8
  %27 = fmul double %25, %26
  %28 = fsub double %23, %27
  %29 = call double @sqrt(double %28) #3
  %30 = fadd double %20, %29
  %31 = load double, double* %4, align 8
  %32 = fmul double 2.000000e+00, %31
  %33 = fdiv double %30, %32
  store double %33, double* %7, align 8
  %34 = load double, double* %5, align 8
  %35 = fneg double %34
  %36 = load double, double* %5, align 8
  %37 = load double, double* %5, align 8
  %38 = fmul double %36, %37
  %39 = load double, double* %4, align 8
  %40 = fmul double 4.000000e+00, %39
  %41 = load double, double* %6, align 8
  %42 = fmul double %40, %41
  %43 = fsub double %38, %42
  %44 = call double @sqrt(double %43) #3
  %45 = fsub double %35, %44
  %46 = load double, double* %4, align 8
  %47 = fmul double 2.000000e+00, %46
  %48 = fdiv double %45, %47
  store double %48, double* %8, align 8
  %49 = load double, double* %7, align 8
  %50 = call i32 (i8*, ...) @printf(i8* getelementptr inbounds ([10 x i8], [10 x i8]* @.str.2, i64 0, i64 0), double %49)
  %51 = load double, double* %8, align 8
  %52 = call i32 (i8*, ...) @printf(i8* getelementptr inbounds ([10 x i8], [10 x i8]* @.str.3, i64 0, i64 0), double %51)
  br label %96

53:                                               ; preds = %3
  %54 = load double, double* %5, align 8
  %55 = load double, double* %5, align 8
  %56 = fmul double %54, %55
  %57 = load double, double* %4, align 8
  %58 = fmul double 4.000000e+00, %57
  %59 = load double, double* %6, align 8
  %60 = fmul double %58, %59
  %61 = fsub double %56, %60
  %62 = fcmp oeq double %61, 0.000000e+00
  br i1 %62, label %63, label %71

63:                                               ; preds = %53
  %64 = load double, double* %5, align 8
  %65 = fneg double %64
  %66 = load double, double* %4, align 8
  %67 = fmul double 2.000000e+00, %66
  %68 = fdiv double %65, %67
  store double %68, double* %8, align 8
  store double %68, double* %7, align 8
  %69 = load double, double* %7, align 8
  %70 = call i32 (i8*, ...) @printf(i8* getelementptr inbounds ([13 x i8], [13 x i8]* @.str.4, i64 0, i64 0), double %69)
  br label %95

71:                                               ; preds = %53
  %72 = load double, double* %5, align 8
  %73 = fneg double %72
  %74 = load double, double* %4, align 8
  %75 = fmul double 2.000000e+00, %74
  %76 = fdiv double %73, %75
  store double %76, double* %7, align 8
  %77 = load double, double* %4, align 8
  %78 = fmul double 4.000000e+00, %77
  %79 = load double, double* %6, align 8
  %80 = fmul double %78, %79
  %81 = load double, double* %5, align 8
  %82 = load double, double* %5, align 8
  %83 = fmul double %81, %82
  %84 = fsub double %80, %83
  %85 = call double @sqrt(double %84) #3
  %86 = load double, double* %4, align 8
  %87 = fmul double 2.000000e+00, %86
  %88 = fdiv double %85, %87
  store double %88, double* %8, align 8
  %89 = load double, double* %7, align 8
  %90 = load double, double* %8, align 8
  %91 = call i32 (i8*, ...) @printf(i8* getelementptr inbounds ([17 x i8], [17 x i8]* @.str.5, i64 0, i64 0), double %89, double %90)
  %92 = load double, double* %7, align 8
  %93 = load double, double* %8, align 8
  %94 = call i32 (i8*, ...) @printf(i8* getelementptr inbounds ([17 x i8], [17 x i8]* @.str.6, i64 0, i64 0), double %92, double %93)
  br label %95

95:                                               ; preds = %71, %63
  br label %96

96:                                               ; preds = %95, %18
  ret void
}

; Function Attrs: nounwind
declare dso_local double @sqrt(double) #2

declare dso_local i32 @printf(i8*, ...) #1


!llvm.module.flags = !{!0}
!llvm.ident = !{!1}

!0 = !{i32 1, !"wchar_size", i32 4}
!1 = !{!"clang version 10.0.0-4ubuntu1 "}
